target datalayout = "e-m:e-p270:32:32-p271:32:32-p272:64:64-i64:64-i128:128-f80:128-n8:16:32:64-S128"
target triple = "x86_64-pc-linux-gnu"

%struct.SizeClassConfig = type { [40 x i32], [1025 x i8], i32 }
%struct.lua_State = type { i8, i8, i8, i8, i8, i8, i8, ptr, ptr, ptr, ptr, ptr, ptr, ptr, ptr, i32, i32, i16, i16, i32, ptr, ptr, ptr, ptr, ptr }
%struct.global_State = type { %struct.stringtable, ptr, ptr, i8, i8, ptr, ptr, ptr, i64, i64, i32, i32, i32, [40 x ptr], [40 x ptr], ptr, ptr, ptr, [256 x i64], ptr, %struct.UpVal, [11 x ptr], [11 x ptr], [21 x ptr], %struct.lua_TValue, %struct.lua_TValue, i32, ptr, i64, [4 x i64], %struct.lua_Callbacks, %struct.lua_ExecutionCallbacks, [128 x ptr], [128 x ptr], [128 x ptr], %struct.GCStats }
%struct.stringtable = type { ptr, i32, i32 }
%struct.UpVal = type { i8, i8, i8, i8, ptr, %union.anon }
%union.anon = type { %struct.anon }
%struct.anon = type { ptr, ptr, ptr }
%struct.lua_TValue = type { %union.Value, [1 x i32], i32 }
%union.Value = type { ptr }
%struct.lua_Callbacks = type { ptr, ptr, ptr, ptr, ptr, ptr, ptr, ptr, ptr, ptr }
%struct.lua_ExecutionCallbacks = type { ptr, ptr, ptr, ptr, ptr, ptr, ptr }
%struct.GCStats = type { [32 x i32], i32, i32, i64, i64, i64, double, double, double }
%struct.lua_Page = type { ptr, ptr, ptr, ptr, i32, i32, ptr, i32, i32, %union.anon.0 }
%union.anon.0 = type { double }

@_ZL16kSizeClassConfig = internal global %struct.SizeClassConfig zeroinitializer, align 4

; Function Attrs: mustprogress uwtable
define internal noundef ptr @_ZL7newpageP9lua_StatePP8lua_Pageiii(ptr noundef %0, ptr noundef %1, i32 noundef %2, i32 noundef %3, i32 noundef %4) #5 {
  %6 = alloca ptr, align 8
  %7 = alloca ptr, align 8
  %8 = alloca i32, align 4
  %9 = alloca i32, align 4
  %10 = alloca i32, align 4
  %11 = alloca ptr, align 8
  %12 = alloca ptr, align 8
  store ptr %0, ptr %6, align 8, !tbaa !21
  store ptr %1, ptr %7, align 8, !tbaa !62
  store i32 %2, ptr %8, align 4, !tbaa !12
  store i32 %3, ptr %9, align 4, !tbaa !12
  store i32 %4, ptr %10, align 4, !tbaa !12
  call void @llvm.lifetime.start.p0(i64 8, ptr %11) #10
  %13 = load ptr, ptr %6, align 8, !tbaa !21
  %14 = getelementptr inbounds nuw %struct.lua_State, ptr %13, i32 0, i32 9
  %15 = load ptr, ptr %14, align 8, !tbaa !25
  store ptr %15, ptr %11, align 8, !tbaa !36
  call void @llvm.lifetime.start.p0(i64 8, ptr %12) #10
  %16 = load ptr, ptr %11, align 8, !tbaa !36
  %17 = getelementptr inbounds nuw %struct.global_State, ptr %16, i32 0, i32 1
  %18 = load ptr, ptr %17, align 8, !tbaa !37
  %19 = load ptr, ptr %11, align 8, !tbaa !36
  %20 = getelementptr inbounds nuw %struct.global_State, ptr %19, i32 0, i32 2
  %21 = load ptr, ptr %20, align 8, !tbaa !50
  %22 = load i32, ptr %8, align 4, !tbaa !12
  %23 = sext i32 %22 to i64
  %24 = call noundef ptr %18(ptr noundef %21, ptr noundef null, i64 noundef 0, i64 noundef %23)
  store ptr %24, ptr %12, align 8, !tbaa !54
  %25 = load ptr, ptr %12, align 8, !tbaa !54
  %26 = icmp ne ptr %25, null
  br i1 %26, label %29, label %27

27:                                               ; preds = %5
  %28 = load ptr, ptr %6, align 8, !tbaa !21
  call void @_Z10luaD_throwP9lua_Statei(ptr noundef %28, i32 noundef 4) #11
  unreachable

29:                                               ; preds = %5
  %30 = load ptr, ptr %12, align 8, !tbaa !54
  %31 = getelementptr inbounds nuw %struct.lua_Page, ptr %30, i32 0, i32 0
  store ptr null, ptr %31, align 8, !tbaa !61
  %32 = load ptr, ptr %12, align 8, !tbaa !54
  %33 = getelementptr inbounds nuw %struct.lua_Page, ptr %32, i32 0, i32 1
  store ptr null, ptr %33, align 8, !tbaa !60
  %34 = load ptr, ptr %12, align 8, !tbaa !54
  %35 = getelementptr inbounds nuw %struct.lua_Page, ptr %34, i32 0, i32 2
  store ptr null, ptr %35, align 8, !tbaa !64
  %36 = load ptr, ptr %12, align 8, !tbaa !54
  %37 = getelementptr inbounds nuw %struct.lua_Page, ptr %36, i32 0, i32 3
  store ptr null, ptr %37, align 8, !tbaa !65
  %38 = load i32, ptr %8, align 4, !tbaa !12
  %39 = load ptr, ptr %12, align 8, !tbaa !54
  %40 = getelementptr inbounds nuw %struct.lua_Page, ptr %39, i32 0, i32 4
  store i32 %38, ptr %40, align 8, !tbaa !66
  %41 = load i32, ptr %9, align 4, !tbaa !12
  %42 = load ptr, ptr %12, align 8, !tbaa !54
  %43 = getelementptr inbounds nuw %struct.lua_Page, ptr %42, i32 0, i32 5
  store i32 %41, ptr %43, align 4, !tbaa !57
  %44 = load ptr, ptr %12, align 8, !tbaa !54
  %45 = getelementptr inbounds nuw %struct.lua_Page, ptr %44, i32 0, i32 6
  store ptr null, ptr %45, align 8, !tbaa !59
  %46 = load i32, ptr %10, align 4, !tbaa !12
  %47 = sub nsw i32 %46, 1
  %48 = load i32, ptr %9, align 4, !tbaa !12
  %49 = mul nsw i32 %47, %48
  %50 = load ptr, ptr %12, align 8, !tbaa !54
  %51 = getelementptr inbounds nuw %struct.lua_Page, ptr %50, i32 0, i32 7
  store i32 %49, ptr %51, align 8, !tbaa !55
  %52 = load ptr, ptr %12, align 8, !tbaa !54
  %53 = getelementptr inbounds nuw %struct.lua_Page, ptr %52, i32 0, i32 8
  store i32 0, ptr %53, align 4, !tbaa !58
  %54 = load ptr, ptr %7, align 8, !tbaa !62
  %55 = icmp ne ptr %54, null
  br i1 %55, label %56, label %74

56:                                               ; preds = %29
  %57 = load ptr, ptr %7, align 8, !tbaa !62
  %58 = load ptr, ptr %57, align 8, !tbaa !54
  %59 = load ptr, ptr %12, align 8, !tbaa !54
  %60 = getelementptr inbounds nuw %struct.lua_Page, ptr %59, i32 0, i32 3
  store ptr %58, ptr %60, align 8, !tbaa !65
  %61 = load ptr, ptr %12, align 8, !tbaa !54
  %62 = getelementptr inbounds nuw %struct.lua_Page, ptr %61, i32 0, i32 3
  %63 = load ptr, ptr %62, align 8, !tbaa !65
  %64 = icmp ne ptr %63, null
  br i1 %64, label %65, label %71

65:                                               ; preds = %56
  %66 = load ptr, ptr %12, align 8, !tbaa !54
  %67 = load ptr, ptr %12, align 8, !tbaa !54
  %68 = getelementptr inbounds nuw %struct.lua_Page, ptr %67, i32 0, i32 3
  %69 = load ptr, ptr %68, align 8, !tbaa !65
  %70 = getelementptr inbounds nuw %struct.lua_Page, ptr %69, i32 0, i32 2
  store ptr %66, ptr %70, align 8, !tbaa !64
  br label %71

71:                                               ; preds = %65, %56
  %72 = load ptr, ptr %12, align 8, !tbaa !54
  %73 = load ptr, ptr %7, align 8, !tbaa !62
  store ptr %72, ptr %73, align 8, !tbaa !54
  br label %74

74:                                               ; preds = %71, %29
  %75 = load ptr, ptr %12, align 8, !tbaa !54
  call void @llvm.lifetime.end.p0(i64 8, ptr %12) #10
  call void @llvm.lifetime.end.p0(i64 8, ptr %11) #10
  ret ptr %75
}

; Function Attrs: mustprogress noinline uwtable
define internal noundef ptr @_ZL12newclasspageP9lua_StatePP8lua_PageS3_hb(ptr noundef %0, ptr noundef %1, ptr noundef %2, i8 noundef zeroext %3, i1 noundef zeroext %4) #9 {
  %6 = alloca ptr, align 8
  %7 = alloca ptr, align 8
  %8 = alloca ptr, align 8
  %9 = alloca i8, align 1
  %10 = alloca i8, align 1
  %11 = alloca i32, align 4
  %12 = alloca i32, align 4
  %13 = alloca i32, align 4
  %14 = alloca i32, align 4
  %15 = alloca ptr, align 8
  store ptr %0, ptr %6, align 8, !tbaa !21
  store ptr %1, ptr %7, align 8, !tbaa !62
  store ptr %2, ptr %8, align 8, !tbaa !62
  store i8 %3, ptr %9, align 1, !tbaa !18
  %16 = zext i1 %4 to i8
  store i8 %16, ptr %10, align 1, !tbaa !77
  call void @llvm.lifetime.start.p0(i64 4, ptr %11) #10
  %17 = load i8, ptr %9, align 1, !tbaa !18
  %18 = zext i8 %17 to i64
  %19 = getelementptr inbounds nuw [40 x i32], ptr @_ZL16kSizeClassConfig, i64 0, i64 %18
  %20 = load i32, ptr %19, align 4, !tbaa !12
  store i32 %20, ptr %11, align 4, !tbaa !12
  call void @llvm.lifetime.start.p0(i64 4, ptr %12) #10
  %21 = load i32, ptr %11, align 4, !tbaa !12
  %22 = icmp sgt i32 %21, 512
  %23 = select i1 %22, i64 32744, i64 16360
  %24 = trunc i64 %23 to i32
  store i32 %24, ptr %12, align 4, !tbaa !12
  call void @llvm.lifetime.start.p0(i64 4, ptr %13) #10
  %25 = load i32, ptr %11, align 4, !tbaa !12
  %26 = sext i32 %25 to i64
  %27 = load i8, ptr %10, align 1, !tbaa !77, !range !78, !noundef !79
  %28 = trunc i8 %27 to i1
  %29 = select i1 %28, i64 8, i64 0
  %30 = add i64 %26, %29
  %31 = trunc i64 %30 to i32
  store i32 %31, ptr %13, align 4, !tbaa !12
  call void @llvm.lifetime.start.p0(i64 4, ptr %14) #10
  %32 = load i32, ptr %12, align 4, !tbaa !12
  %33 = sext i32 %32 to i64
  %34 = sub i64 %33, 56
  %35 = load i32, ptr %13, align 4, !tbaa !12
  %36 = sext i32 %35 to i64
  %37 = udiv i64 %34, %36
  %38 = trunc i64 %37 to i32
  store i32 %38, ptr %14, align 4, !tbaa !12
  call void @llvm.lifetime.start.p0(i64 8, ptr %15) #10
  %39 = load ptr, ptr %6, align 8, !tbaa !21
  %40 = load ptr, ptr %8, align 8, !tbaa !62
  %41 = load i32, ptr %12, align 4, !tbaa !12
  %42 = load i32, ptr %13, align 4, !tbaa !12
  %43 = load i32, ptr %14, align 4, !tbaa !12
  %44 = call noundef ptr @_ZL7newpageP9lua_StatePP8lua_Pageiii(ptr noundef %39, ptr noundef %40, i32 noundef %41, i32 noundef %42, i32 noundef %43)
  store ptr %44, ptr %15, align 8, !tbaa !54
  %45 = load ptr, ptr %15, align 8, !tbaa !54
  %46 = load ptr, ptr %7, align 8, !tbaa !62
  %47 = load i8, ptr %9, align 1, !tbaa !18
  %48 = zext i8 %47 to i64
  %49 = getelementptr inbounds nuw ptr, ptr %46, i64 %48
  store ptr %45, ptr %49, align 8, !tbaa !54
  %50 = load ptr, ptr %15, align 8, !tbaa !54
  call void @llvm.lifetime.end.p0(i64 8, ptr %15) #10
  call void @llvm.lifetime.end.p0(i64 4, ptr %14) #10
  call void @llvm.lifetime.end.p0(i64 4, ptr %13) #10
  call void @llvm.lifetime.end.p0(i64 4, ptr %12) #10
  call void @llvm.lifetime.end.p0(i64 4, ptr %11) #10
  ret ptr %50
}