; Function Attrs: mustprogress noinline uwtable
define internal fastcc noundef nonnull ptr @_ZL12newclasspageP9lua_StatePP8lua_PageS3_hb(ptr noundef %0, ptr noundef writeonly captures(none) %1, ptr noundef %2, i8 noundef zeroext range(i8 0, -128) %3, i1 noundef zeroext %4) unnamed_addr #8 {
  %6 = zext nneg i8 %3 to i64
  %7 = getelementptr inbounds nuw [40 x i32], ptr @_ZL16kSizeClassConfig, i64 0, i64 %6
  %8 = load i32, ptr %7, align 4, !tbaa !54
  %9 = icmp sgt i32 %8, 512
  %10 = select i1 %9, i32 32744, i32 16360
  %11 = getelementptr inbounds nuw i8, ptr %0, i64 24
  %12 = load ptr, ptr %11, align 8, !tbaa !4
  %13 = getelementptr inbounds nuw i8, ptr %12, i64 16
  %14 = load ptr, ptr %13, align 8, !tbaa !30
  %15 = getelementptr inbounds nuw i8, ptr %12, i64 24
  %16 = load ptr, ptr %15, align 8, !tbaa !44
  %17 = zext nneg i32 %10 to i64
  %18 = tail call noundef ptr %14(ptr noundef %16, ptr noundef null, i64 noundef 0, i64 noundef %17)
  %.not.i = icmp eq ptr %18, null
  br i1 %.not.i, label %19, label %20

19:                                               ; preds = %5
  tail call void @_Z10luaD_throwP9lua_Statei(ptr noundef nonnull %0, i32 noundef 4) #11
  unreachable

20:                                               ; preds = %5
  %21 = add nsw i64 %17, -56
  %22 = select i1 %4, i32 8, i32 0
  %23 = add i32 %8, %22
  %24 = sext i32 %23 to i64
  %25 = udiv i64 %21, %24
  %26 = trunc nuw nsw i64 %25 to i32
  %27 = getelementptr inbounds nuw i8, ptr %18, i64 32
  tail call void @llvm.memset.p0.i64(ptr noundef nonnull align 8 dereferenceable(32) %18, i8 0, i64 32, i1 false)
  store i32 %10, ptr %27, align 8, !tbaa !49
  %28 = getelementptr inbounds nuw i8, ptr %18, i64 36
  store i32 %23, ptr %28, align 4, !tbaa !24
  %29 = getelementptr inbounds nuw i8, ptr %18, i64 40
  store ptr null, ptr %29, align 8, !tbaa !27
  %30 = add nsw i32 %26, -1
  %31 = mul nsw i32 %30, %23
  %32 = getelementptr inbounds nuw i8, ptr %18, i64 48
  store i32 %31, ptr %32, align 8, !tbaa !22
  %33 = getelementptr inbounds nuw i8, ptr %18, i64 52
  store i32 0, ptr %33, align 4, !tbaa !25
  %.not29.i = icmp eq ptr %2, null
  br i1 %.not29.i, label %_ZL7newpageP9lua_StatePP8lua_Pageiii.exit, label %34

34:                                               ; preds = %20
  %35 = getelementptr inbounds nuw i8, ptr %18, i64 24
  %36 = load ptr, ptr %2, align 8, !tbaa !20
  store ptr %36, ptr %35, align 8, !tbaa !50
  %.not30.i = icmp eq ptr %36, null
  br i1 %.not30.i, label %39, label %37

37:                                               ; preds = %34
  %38 = getelementptr inbounds nuw i8, ptr %36, i64 16
  store ptr %18, ptr %38, align 8, !tbaa !51
  br label %39

39:                                               ; preds = %37, %34
  store ptr %18, ptr %2, align 8, !tbaa !20
  br label %_ZL7newpageP9lua_StatePP8lua_Pageiii.exit

_ZL7newpageP9lua_StatePP8lua_Pageiii.exit:        ; preds = %20, %39
  %40 = getelementptr inbounds nuw ptr, ptr %1, i64 %6
  store ptr %18, ptr %40, align 8, !tbaa !20
  ret ptr %18
}